Certificate:
    Data:
        Version: 3 (0x2)
        Serial Number: 2 (0x2)
    Signature Algorithm: ecdsa-with-SHA1
        Issuer: C=CN, ST=beijing, L=beijing, O=Internet Widgits Pty Ltd, OU=Local CA, CN=local.ca
        Validity
            Not Before: Oct 12 08:34:15 2019 GMT
            Not After : Oct 11 08:34:15 2020 GMT
        Subject: C=CN, ST=beijing, L=beijing, O=Internet Widgits Pty Ltd, OU=dev, CN=client.dev
        Subject Public Key Info:
            Public Key Algorithm: id-ecPublicKey
                Public-Key: (384 bit)
                pub: 
                    04:48:2e:47:c6:b3:41:a5:d4:cd:b2:b5:98:a8:30:
                    d4:ff:74:a9:85:46:4a:71:9f:0a:ac:66:97:1d:d9:
                    c1:ac:57:c4:96:8f:8f:91:80:a4:f6:3b:13:0e:56:
                    b2:63:c7:d3:bc:55:4c:90:ab:59:f0:9c:7a:bb:c6:
                    cb:b2:15:07:f8:74:4f:2e:a5:13:4d:14:50:bc:b1:
                    3b:a4:da:c9:1c:63:cc:38:3c:8e:1e:d4:91:25:19:
                    8d:de:6f:fa:db:34:63
                ASN1 OID: secp384r1
                NIST CURVE: P-384
        X509v3 extensions:
            X509v3 Basic Constraints: 
                CA:FALSE
            Netscape Comment: 
                OpenSSL Generated Certificate
            X509v3 Subject Key Identifier: 
                63:34:07:42:1A:AF:2D:B4:0E:94:31:2D:11:0E:40:64:6E:AA:A4:3D
            X509v3 Authority Key Identifier: 
                keyid:0D:45:0A:72:CD:46:A8:23:48:A2:E8:59:70:CC:E0:EA:C8:46:31:33

    Signature Algorithm: ecdsa-with-SHA1
         30:65:02:30:6a:50:d3:06:61:35:13:9a:01:35:6d:28:d1:72:
         1b:f1:ca:bc:8a:f2:f0:49:66:2d:38:ea:8f:eb:c5:ce:50:de:
         d1:09:7d:29:81:bc:19:9d:1d:4b:de:0d:bd:28:d1:f7:02:31:
         00:95:77:fd:01:66:c1:ab:08:3d:12:10:83:76:71:a5:b1:fb:
         fd:16:fc:b7:cc:47:50:90:24:cd:26:6e:d6:b5:b6:50:0b:f3:
         50:60:eb:5e:63:38:c7:9e:a2:ec:4f:11:93
-----BEGIN CERTIFICATE-----
MIICljCCAh2gAwIBAgIBAjAJBgcqhkjOPQQBMHoxCzAJBgNVBAYTAkNOMRAwDgYD
VQQIDAdiZWlqaW5nMRAwDgYDVQQHDAdiZWlqaW5nMSEwHwYDVQQKDBhJbnRlcm5l
dCBXaWRnaXRzIFB0eSBMdGQxETAPBgNVBAsMCExvY2FsIENBMREwDwYDVQQDDAhs
b2NhbC5jYTAeFw0xOTEwMTIwODM0MTVaFw0yMDEwMTEwODM0MTVaMHcxCzAJBgNV
BAYTAkNOMRAwDgYDVQQIDAdiZWlqaW5nMRAwDgYDVQQHDAdiZWlqaW5nMSEwHwYD
VQQKDBhJbnRlcm5ldCBXaWRnaXRzIFB0eSBMdGQxDDAKBgNVBAsMA2RldjETMBEG
A1UEAwwKY2xpZW50LmRldjB2MBAGByqGSM49AgEGBSuBBAAiA2IABEguR8azQaXU
zbK1mKgw1P90qYVGSnGfCqxmlx3ZwaxXxJaPj5GApPY7Ew5WsmPH07xVTJCrWfCc
ervGy7IVB/h0Ty6lE00UULyxO6TayRxjzDg8jh7UkSUZjd5v+ts0Y6N7MHkwCQYD
VR0TBAIwADAsBglghkgBhvhCAQ0EHxYdT3BlblNTTCBHZW5lcmF0ZWQgQ2VydGlm
aWNhdGUwHQYDVR0OBBYEFGM0B0Iary20DpQxLREOQGRuqqQ9MB8GA1UdIwQYMBaA
FA1FCnLNRqgjSKLoWXDM4OrIRjEzMAkGByqGSM49BAEDaAAwZQIwalDTBmE1E5oB
NW0o0XIb8cq8ivLwSWYtOOqP68XOUN7RCX0pgbwZnR1L3g29KNH3AjEAlXf9AWbB
qwg9EhCDdnGlsfv9Fvy3zEdQkCTNJm7WtbZQC/NQYOteYzjHnqLsTxGT
-----END CERTIFICATE-----
