Certificate:
    Data:
        Version: 3 (0x2)
        Serial Number: 1 (0x1)
    Signature Algorithm: ecdsa-with-SHA256
        Issuer: C=AU, ST=Some-State, O=Internet Widgits Pty Ltd, CN=ca.local
        Validity
            Not Before: Oct 26 02:50:24 2019 GMT
            Not After : Oct 23 02:50:24 2029 GMT
        Subject: C=AU, ST=Some-State, L=Some-City, O=Internet Widgits Pty Ltd, OU=local test, CN=client.local/emailAddress=it@test.local
        Subject Public Key Info:
            Public Key Algorithm: id-ecPublicKey
                Public-Key: (256 bit)
                pub: 
                    04:21:11:71:ee:d9:b7:c4:44:51:77:b8:85:22:b3:
                    b7:bc:05:7f:3d:57:49:a8:69:2b:59:34:0f:19:5c:
                    6c:b8:39:31:79:19:4e:46:c7:7a:99:a4:29:08:26:
                    13:33:20:66:46:fa:74:14:5e:a8:0d:41:4f:08:38:
                    3a:80:6f:f1:bb
                ASN1 OID: prime256v1
                NIST CURVE: P-256
        X509v3 extensions:
            X509v3 Basic Constraints: 
                CA:FALSE
            Netscape Comment: 
                OpenSSL Generated Certificate by github.com/islishude
            X509v3 Key Usage: 
                Digital Signature, Non Repudiation, Key Encipherment
            Netscape CA Revocation Url: 
                https://ca.test.lcoal/ca-crl.pem
            X509v3 Subject Alternative Name: 
                DNS:dev.local, IP Address:127.0.0.1
    Signature Algorithm: ecdsa-with-SHA256
         30:46:02:21:00:e9:97:a8:09:83:2f:b6:ae:22:95:64:a2:18:
         2e:5b:39:6d:4a:e8:92:fd:73:1d:e1:f4:16:84:86:b0:ad:b9:
         ca:02:21:00:8e:57:c8:a9:16:d3:7c:1d:f3:93:d3:ae:1f:51:
         40:2b:8b:07:63:ec:e3:71:d0:7e:ee:0d:dd:22:f2:54:14:ee
-----BEGIN CERTIFICATE-----
MIICmzCCAkCgAwIBAgIBATAKBggqhkjOPQQDAjBYMQswCQYDVQQGEwJBVTETMBEG
A1UECAwKU29tZS1TdGF0ZTEhMB8GA1UECgwYSW50ZXJuZXQgV2lkZ2l0cyBQdHkg
THRkMREwDwYDVQQDDAhjYS5sb2NhbDAeFw0xOTEwMjYwMjUwMjRaFw0yOTEwMjMw
MjUwMjRaMIGjMQswCQYDVQQGEwJBVTETMBEGA1UECAwKU29tZS1TdGF0ZTESMBAG
A1UEBwwJU29tZS1DaXR5MSEwHwYDVQQKDBhJbnRlcm5ldCBXaWRnaXRzIFB0eSBM
dGQxEzARBgNVBAsMCmxvY2FsIHRlc3QxFTATBgNVBAMMDGNsaWVudC5sb2NhbDEc
MBoGCSqGSIb3DQEJARYNaXRAdGVzdC5sb2NhbDBZMBMGByqGSM49AgEGCCqGSM49
AwEHA0IABCERce7Zt8REUXe4hSKzt7wFfz1XSahpK1k0DxlcbLg5MXkZTkbHepmk
KQgmEzMgZkb6dBReqA1BTwg4OoBv8bujga4wgaswCQYDVR0TBAIwADBEBglghkgB
hvhCAQ0ENxY1T3BlblNTTCBHZW5lcmF0ZWQgQ2VydGlmaWNhdGUgYnkgZ2l0aHVi
LmNvbS9pc2xpc2h1ZGUwCwYDVR0PBAQDAgXgMC8GCWCGSAGG+EIBBAQiFiBodHRw
czovL2NhLnRlc3QubGNvYWwvY2EtY3JsLnBlbTAaBgNVHREEEzARgglkZXYubG9j
YWyHBH8AAAEwCgYIKoZIzj0EAwIDSQAwRgIhAOmXqAmDL7auIpVkohguWzltSuiS
/XMd4fQWhIawrbnKAiEAjlfIqRbTfB3zk9OuH1FAK4sHY+zjcdB+7g3dIvJUFO4=
-----END CERTIFICATE-----
