Certificate:
    Data:
        Version: 3 (0x2)
        Serial Number: 2 (0x2)
    Signature Algorithm: ecdsa-with-SHA256
        Issuer: C=AU, ST=Some-State, O=Internet Widgits Pty Ltd, CN=ca.local
        Validity
            Not Before: Oct 26 02:55:49 2019 GMT
            Not After : Oct 23 02:55:49 2029 GMT
        Subject: C=AU, ST=Some-State, L=Some-City, O=Internet Widgits Pty Ltd, OU=local test, CN=server.local/emailAddress=it@test.local
        Subject Public Key Info:
            Public Key Algorithm: id-ecPublicKey
                Public-Key: (256 bit)
                pub: 
                    04:53:b0:00:63:92:11:4f:81:a2:76:07:70:c0:d0:
                    b8:95:ef:08:95:69:ef:4f:c1:37:3b:92:40:aa:c6:
                    7a:f7:9e:65:10:f6:e7:9a:b3:7d:d9:84:78:7e:18:
                    99:2a:0b:5b:d5:4b:21:50:57:f3:a6:8e:c0:a8:fa:
                    e7:41:73:8e:69
                ASN1 OID: prime256v1
                NIST CURVE: P-256
        X509v3 extensions:
            X509v3 Basic Constraints: 
                CA:FALSE
            Netscape Comment: 
                OpenSSL Generated Certificate by github.com/islishude
            X509v3 Key Usage: 
                Digital Signature, Non Repudiation, Key Encipherment
            Netscape CA Revocation Url: 
                https://ca.test.lcoal/ca-crl.pem
            X509v3 Subject Alternative Name: 
                DNS:dev.local, IP Address:127.0.0.1
    Signature Algorithm: ecdsa-with-SHA256
         30:45:02:20:4e:82:47:84:4a:7f:07:cd:2f:9f:11:ad:74:1a:
         80:48:18:c0:8d:53:06:a2:fc:f4:88:b5:a4:f7:cf:a8:59:5d:
         02:21:00:8d:06:a9:8a:e7:cb:ef:df:46:11:1e:01:e4:d6:eb:
         82:c6:f7:35:e7:ef:f1:24:3b:a6:9b:75:61:6e:0f:8a:70
-----BEGIN CERTIFICATE-----
MIICmjCCAkCgAwIBAgIBAjAKBggqhkjOPQQDAjBYMQswCQYDVQQGEwJBVTETMBEG
A1UECAwKU29tZS1TdGF0ZTEhMB8GA1UECgwYSW50ZXJuZXQgV2lkZ2l0cyBQdHkg
THRkMREwDwYDVQQDDAhjYS5sb2NhbDAeFw0xOTEwMjYwMjU1NDlaFw0yOTEwMjMw
MjU1NDlaMIGjMQswCQYDVQQGEwJBVTETMBEGA1UECAwKU29tZS1TdGF0ZTESMBAG
A1UEBwwJU29tZS1DaXR5MSEwHwYDVQQKDBhJbnRlcm5ldCBXaWRnaXRzIFB0eSBM
dGQxEzARBgNVBAsMCmxvY2FsIHRlc3QxFTATBgNVBAMMDHNlcnZlci5sb2NhbDEc
MBoGCSqGSIb3DQEJARYNaXRAdGVzdC5sb2NhbDBZMBMGByqGSM49AgEGCCqGSM49
AwEHA0IABFOwAGOSEU+BonYHcMDQuJXvCJVp70/BNzuSQKrGeveeZRD255qzfdmE
eH4YmSoLW9VLIVBX86aOwKj650Fzjmmjga4wgaswCQYDVR0TBAIwADBEBglghkgB
hvhCAQ0ENxY1T3BlblNTTCBHZW5lcmF0ZWQgQ2VydGlmaWNhdGUgYnkgZ2l0aHVi
LmNvbS9pc2xpc2h1ZGUwCwYDVR0PBAQDAgXgMC8GCWCGSAGG+EIBBAQiFiBodHRw
czovL2NhLnRlc3QubGNvYWwvY2EtY3JsLnBlbTAaBgNVHREEEzARgglkZXYubG9j
YWyHBH8AAAEwCgYIKoZIzj0EAwIDSAAwRQIgToJHhEp/B80vnxGtdBqASBjAjVMG
ovz0iLWk98+oWV0CIQCNBqmK58vv30YRHgHk1uuCxvc15+/xJDumm3Vhbg+KcA==
-----END CERTIFICATE-----
