Certificate:
    Data:
        Version: 3 (0x2)
        Serial Number: 1 (0x1)
    Signature Algorithm: ecdsa-with-SHA1
        Issuer: C=CN, ST=beijing, L=beijing, O=Internet Widgits Pty Ltd, OU=Local CA, CN=local.ca
        Validity
            Not Before: Oct 12 08:26:26 2019 GMT
            Not After : Oct 11 08:26:26 2020 GMT
        Subject: C=CN, ST=beijing, L=beijing, OU=dev, CN=server.dev
        Subject Public Key Info:
            Public Key Algorithm: id-ecPublicKey
                Public-Key: (384 bit)
                pub: 
                    04:e6:64:6a:21:f6:85:0f:83:88:64:4b:c1:3c:a7:
                    fc:10:14:5a:25:de:28:09:52:f4:c2:86:e4:57:bc:
                    42:66:da:4c:64:84:24:1c:f8:55:10:a8:83:fb:40:
                    c6:8c:8b:63:42:02:e5:d7:f0:f7:c3:ac:25:2a:4b:
                    84:19:c3:68:39:ab:2b:1b:f7:72:4b:32:6f:e7:ec:
                    b7:03:04:32:66:e9:9a:d9:b5:27:1d:23:5b:ea:0d:
                    0d:8c:70:71:6e:df:c6
                ASN1 OID: secp384r1
                NIST CURVE: P-384
        X509v3 extensions:
            X509v3 Basic Constraints: 
                CA:FALSE
            Netscape Comment: 
                OpenSSL Generated Certificate
            X509v3 Subject Key Identifier: 
                59:0D:83:C7:14:92:87:C7:68:28:83:01:C3:14:4E:68:F4:81:22:05
            X509v3 Authority Key Identifier: 
                keyid:0D:45:0A:72:CD:46:A8:23:48:A2:E8:59:70:CC:E0:EA:C8:46:31:33

    Signature Algorithm: ecdsa-with-SHA1
         30:64:02:30:0c:b5:c5:92:d1:3e:38:79:1d:2c:b2:74:0f:7d:
         a3:98:d2:3f:c2:a9:8d:77:fe:df:92:cb:29:3f:89:85:c8:4e:
         46:92:ca:e1:d4:2b:3a:68:21:40:d1:8f:87:1d:ce:27:02:30:
         64:2b:81:b6:4d:e7:b2:c5:63:40:4f:70:ad:9a:ae:7d:e3:a8:
         4a:e7:50:cb:66:d8:3d:c9:fd:ab:1c:dd:93:8a:7a:f6:58:41:
         b2:a7:3b:12:66:7f:dd:a1:22:44:42:e4
-----BEGIN CERTIFICATE-----
MIICcjCCAfqgAwIBAgIBATAJBgcqhkjOPQQBMHoxCzAJBgNVBAYTAkNOMRAwDgYD
VQQIDAdiZWlqaW5nMRAwDgYDVQQHDAdiZWlqaW5nMSEwHwYDVQQKDBhJbnRlcm5l
dCBXaWRnaXRzIFB0eSBMdGQxETAPBgNVBAsMCExvY2FsIENBMREwDwYDVQQDDAhs
b2NhbC5jYTAeFw0xOTEwMTIwODI2MjZaFw0yMDEwMTEwODI2MjZaMFQxCzAJBgNV
BAYTAkNOMRAwDgYDVQQIDAdiZWlqaW5nMRAwDgYDVQQHDAdiZWlqaW5nMQwwCgYD
VQQLDANkZXYxEzARBgNVBAMMCnNlcnZlci5kZXYwdjAQBgcqhkjOPQIBBgUrgQQA
IgNiAATmZGoh9oUPg4hkS8E8p/wQFFol3igJUvTChuRXvEJm2kxkhCQc+FUQqIP7
QMaMi2NCAuXX8PfDrCUqS4QZw2g5qysb93JLMm/n7LcDBDJm6ZrZtScdI1vqDQ2M
cHFu38ajezB5MAkGA1UdEwQCMAAwLAYJYIZIAYb4QgENBB8WHU9wZW5TU0wgR2Vu
ZXJhdGVkIENlcnRpZmljYXRlMB0GA1UdDgQWBBRZDYPHFJKHx2gogwHDFE5o9IEi
BTAfBgNVHSMEGDAWgBQNRQpyzUaoI0ii6FlwzODqyEYxMzAJBgcqhkjOPQQBA2cA
MGQCMAy1xZLRPjh5HSyydA99o5jSP8KpjXf+35LLKT+JhchORpLK4dQrOmghQNGP
hx3OJwIwZCuBtk3nssVjQE9wrZqufeOoSudQy2bYPcn9qxzdk4p69lhBsqc7EmZ/
3aEiRELk
-----END CERTIFICATE-----
