Certificate:
    Data:
        Version: 3 (0x2)
        Serial Number: 3 (0x3)
    Signature Algorithm: ecdsa-with-SHA256
        Issuer: C=CN, ST=beijing, L=beijing, O=Internet Widgits Pty Ltd, OU=Local CA, CN=local.ca
        Validity
            Not Before: Oct 25 15:10:14 2019 GMT
            Not After : Oct 24 15:10:14 2020 GMT
        Subject: C=AU, ST=Some-State, L=Some-City, O=Internet Widgits Pty Ltd, OU=Some-Organization, CN=client.local
        Subject Public Key Info:
            Public Key Algorithm: id-ecPublicKey
                Public-Key: (384 bit)
                pub: 
                    04:8a:09:58:93:a2:3b:8f:0e:f4:a3:80:78:25:a1:
                    91:24:69:a6:b2:18:2f:0c:83:5a:82:10:23:df:b9:
                    60:83:3a:33:b6:b1:61:8c:60:f8:84:b3:f1:07:f8:
                    c3:89:7b:6f:a5:7c:17:e3:04:de:a8:4b:a8:78:3d:
                    99:7d:fc:f1:4e:98:0c:05:f8:c0:13:70:ce:8c:a8:
                    1f:f5:ac:cb:44:29:78:e0:9a:64:16:b3:07:08:24:
                    30:89:6d:8b:30:66:e4
                ASN1 OID: secp384r1
                NIST CURVE: P-384
        X509v3 extensions:
            X509v3 Basic Constraints: 
                CA:FALSE
            Netscape Cert Type: 
                SSL Client, SSL Server, S/MIME
            X509v3 Key Usage: 
                Digital Signature, Non Repudiation, Key Encipherment
            Netscape Comment: 
                test by github.com/islishude
            X509v3 Subject Key Identifier: 
                79:FC:F9:8D:C8:12:E4:1D:25:A4:95:78:A2:B7:43:1C:E3:4A:0C:8A
            X509v3 Authority Key Identifier: 
                keyid:0D:45:0A:72:CD:46:A8:23:48:A2:E8:59:70:CC:E0:EA:C8:46:31:33

            X509v3 Subject Alternative Name: 
                DNS:dev.local, IP Address:127.0.0.1
            Netscape CA Revocation Url: 
                http://www.domain.dom/ca-crl.pem
            X509v3 Extended Key Usage: critical
                Time Stamping, TLS Web Server Authentication, TLS Web Client Authentication, Code Signing, E-mail Protection
    Signature Algorithm: ecdsa-with-SHA256
         30:65:02:30:26:29:13:71:7e:64:0a:10:30:e0:34:9b:bf:70:
         1e:52:84:38:1d:5a:cd:b1:c8:c5:53:00:30:f4:b1:15:46:e7:
         59:b9:f9:e1:27:f6:83:8d:77:39:7c:f0:94:28:c8:c8:02:31:
         00:cd:fa:a6:84:93:ce:8d:5e:11:6d:e2:05:5e:5a:79:a1:9e:
         98:35:01:82:84:9d:7f:97:15:a6:16:dc:89:28:f5:9b:63:84:
         e6:de:a3:e9:1d:59:ca:5e:88:da:ab:ad:3b
-----BEGIN CERTIFICATE-----
MIIDXjCCAuSgAwIBAgIBAzAKBggqhkjOPQQDAjB6MQswCQYDVQQGEwJDTjEQMA4G
A1UECAwHYmVpamluZzEQMA4GA1UEBwwHYmVpamluZzEhMB8GA1UECgwYSW50ZXJu
ZXQgV2lkZ2l0cyBQdHkgTHRkMREwDwYDVQQLDAhMb2NhbCBDQTERMA8GA1UEAwwI
bG9jYWwuY2EwHhcNMTkxMDI1MTUxMDE0WhcNMjAxMDI0MTUxMDE0WjCBjDELMAkG
A1UEBhMCQVUxEzARBgNVBAgMClNvbWUtU3RhdGUxEjAQBgNVBAcMCVNvbWUtQ2l0
eTEhMB8GA1UECgwYSW50ZXJuZXQgV2lkZ2l0cyBQdHkgTHRkMRowGAYDVQQLDBFT
b21lLU9yZ2FuaXphdGlvbjEVMBMGA1UEAwwMY2xpZW50LmxvY2FsMHYwEAYHKoZI
zj0CAQYFK4EEACIDYgAEiglYk6I7jw70o4B4JaGRJGmmshgvDINaghAj37lggzoz
trFhjGD4hLPxB/jDiXtvpXwX4wTeqEuoeD2ZffzxTpgMBfjAE3DOjKgf9azLRCl4
4JpkFrMHCCQwiW2LMGbko4IBKTCCASUwCQYDVR0TBAIwADARBglghkgBhvhCAQEE
BAMCBeAwCwYDVR0PBAQDAgXgMCsGCWCGSAGG+EIBDQQeFhx0ZXN0IGJ5IGdpdGh1
Yi5jb20vaXNsaXNodWRlMB0GA1UdDgQWBBR5/PmNyBLkHSWklXiit0Mc40oMijAf
BgNVHSMEGDAWgBQNRQpyzUaoI0ii6FlwzODqyEYxMzAaBgNVHREEEzARgglkZXYu
bG9jYWyHBH8AAAEwLwYJYIZIAYb4QgEEBCIWIGh0dHA6Ly93d3cuZG9tYWluLmRv
bS9jYS1jcmwucGVtMD4GA1UdJQEB/wQ0MDIGCCsGAQUFBwMIBggrBgEFBQcDAQYI
KwYBBQUHAwIGCCsGAQUFBwMDBggrBgEFBQcDBDAKBggqhkjOPQQDAgNoADBlAjAm
KRNxfmQKEDDgNJu/cB5ShDgdWs2xyMVTADD0sRVG51m5+eEn9oONdzl88JQoyMgC
MQDN+qaEk86NXhFt4gVeWnmhnpg1AYKEnX+XFaYW3Iko9ZtjhObeo+kdWcpeiNqr
rTs=
-----END CERTIFICATE-----
