Certificate:
    Data:
        Version: 3 (0x2)
        Serial Number: 4 (0x4)
    Signature Algorithm: ecdsa-with-SHA256
        Issuer: C=CN, ST=beijing, L=beijing, O=Internet Widgits Pty Ltd, OU=Local CA, CN=local.ca
        Validity
            Not Before: Oct 25 15:12:12 2019 GMT
            Not After : Oct 24 15:12:12 2020 GMT
        Subject: C=AU, ST=Some-State, L=Some-City, O=Internet Widgits Pty Ltd, OU=Some-Organization, CN=server.local
        Subject Public Key Info:
            Public Key Algorithm: id-ecPublicKey
                Public-Key: (384 bit)
                pub: 
                    04:39:b7:45:1c:1a:d9:b0:2a:0c:d6:d1:be:8a:81:
                    e5:36:b3:84:ac:63:13:1b:8a:7b:f0:3e:54:48:46:
                    89:5f:18:49:7f:fb:bb:e4:cb:8e:32:0b:23:df:d1:
                    0f:a1:fb:d3:90:32:4f:60:69:12:88:65:c8:be:a2:
                    3f:12:07:26:8a:67:22:52:69:0b:b1:cd:0d:6d:68:
                    5b:cc:2b:3a:34:99:ad:ed:72:2f:eb:9b:70:28:da:
                    be:d7:2e:4d:1f:79:25
                ASN1 OID: secp384r1
                NIST CURVE: P-384
        X509v3 extensions:
            X509v3 Basic Constraints: 
                CA:FALSE
            Netscape Cert Type: 
                SSL Client, SSL Server, S/MIME
            X509v3 Key Usage: 
                Digital Signature, Non Repudiation, Key Encipherment
            Netscape Comment: 
                test by github.com/islishude
            X509v3 Subject Key Identifier: 
                82:7F:A1:44:8F:41:96:56:8B:70:A4:AD:E3:7D:3B:A4:0C:57:69:E0
            X509v3 Authority Key Identifier: 
                keyid:0D:45:0A:72:CD:46:A8:23:48:A2:E8:59:70:CC:E0:EA:C8:46:31:33

            X509v3 Subject Alternative Name: 
                DNS:dev.local, IP Address:127.0.0.1
            Netscape CA Revocation Url: 
                http://www.domain.dom/ca-crl.pem
            X509v3 Extended Key Usage: critical
                Time Stamping, TLS Web Server Authentication, TLS Web Client Authentication, Code Signing, E-mail Protection
    Signature Algorithm: ecdsa-with-SHA256
         30:65:02:31:00:d7:3a:b8:38:ef:fd:fc:4c:d1:05:0c:c3:33:
         3d:21:e4:4b:ee:ea:f6:ef:4c:0a:33:00:93:d2:60:10:66:11:
         9c:52:30:da:7c:f2:f8:3b:32:e9:ae:91:f1:81:26:7a:6b:02:
         30:28:7a:31:a6:b4:25:7e:40:50:23:b5:17:40:58:6f:79:9c:
         46:3f:88:9e:97:db:d8:c3:8a:92:b9:30:3f:a2:7a:43:09:de:
         18:80:94:9e:c1:66:4e:9c:d0:4a:27:2a:2a
-----BEGIN CERTIFICATE-----
MIIDXjCCAuSgAwIBAgIBBDAKBggqhkjOPQQDAjB6MQswCQYDVQQGEwJDTjEQMA4G
A1UECAwHYmVpamluZzEQMA4GA1UEBwwHYmVpamluZzEhMB8GA1UECgwYSW50ZXJu
ZXQgV2lkZ2l0cyBQdHkgTHRkMREwDwYDVQQLDAhMb2NhbCBDQTERMA8GA1UEAwwI
bG9jYWwuY2EwHhcNMTkxMDI1MTUxMjEyWhcNMjAxMDI0MTUxMjEyWjCBjDELMAkG
A1UEBhMCQVUxEzARBgNVBAgMClNvbWUtU3RhdGUxEjAQBgNVBAcMCVNvbWUtQ2l0
eTEhMB8GA1UECgwYSW50ZXJuZXQgV2lkZ2l0cyBQdHkgTHRkMRowGAYDVQQLDBFT
b21lLU9yZ2FuaXphdGlvbjEVMBMGA1UEAwwMc2VydmVyLmxvY2FsMHYwEAYHKoZI
zj0CAQYFK4EEACIDYgAEObdFHBrZsCoM1tG+ioHlNrOErGMTG4p78D5USEaJXxhJ
f/u75MuOMgsj39EPofvTkDJPYGkSiGXIvqI/EgcmimciUmkLsc0NbWhbzCs6NJmt
7XIv65twKNq+1y5NH3klo4IBKTCCASUwCQYDVR0TBAIwADARBglghkgBhvhCAQEE
BAMCBeAwCwYDVR0PBAQDAgXgMCsGCWCGSAGG+EIBDQQeFhx0ZXN0IGJ5IGdpdGh1
Yi5jb20vaXNsaXNodWRlMB0GA1UdDgQWBBSCf6FEj0GWVotwpK3jfTukDFdp4DAf
BgNVHSMEGDAWgBQNRQpyzUaoI0ii6FlwzODqyEYxMzAaBgNVHREEEzARgglkZXYu
bG9jYWyHBH8AAAEwLwYJYIZIAYb4QgEEBCIWIGh0dHA6Ly93d3cuZG9tYWluLmRv
bS9jYS1jcmwucGVtMD4GA1UdJQEB/wQ0MDIGCCsGAQUFBwMIBggrBgEFBQcDAQYI
KwYBBQUHAwIGCCsGAQUFBwMDBggrBgEFBQcDBDAKBggqhkjOPQQDAgNoADBlAjEA
1zq4OO/9/EzRBQzDMz0h5Evu6vbvTAozAJPSYBBmEZxSMNp88vg7MumukfGBJnpr
AjAoejGmtCV+QFAjtRdAWG95nEY/iJ6X29jDipK5MD+iekMJ3hiAlJ7BZk6c0Eon
Kio=
-----END CERTIFICATE-----
